target datalayout = "e-m:e-p270:32:32-p271:32:32-p272:64:64-i64:64-i128:128-f80:128-n8:16:32:64-S128"
target triple = "x86_64-pc-linux-gnu"

%struct.rlimit = type { i64, i64 }

; Function Attrs: nounwind uwtable
define internal void @faulthandler_suppress_crash_report() #0 {
  %1 = alloca %struct.rlimit, align 8
  call void @llvm.lifetime.start.p0(i64 16, ptr %1) #14
  %2 = call i32 @getrlimit64(i32 noundef 4, ptr noundef %1) #14
  %3 = icmp eq i32 %2, 0
  br i1 %3, label %4, label %7

4:                                                ; preds = %0
  %5 = getelementptr inbounds nuw %struct.rlimit, ptr %1, i32 0, i32 0
  store i64 0, ptr %5, align 8, !tbaa !243
  %6 = call i32 @setrlimit64(i32 noundef 4, ptr noundef %1) #14
  br label %7

7:                                                ; preds = %4, %0
  call void @llvm.lifetime.end.p0(i64 16, ptr %1) #14
  ret void
}

; Function Attrs: nounwind uwtable
define internal ptr @faulthandler_read_null(ptr noundef %0, ptr noundef %1) #0 {
  %3 = alloca ptr, align 8
  %4 = alloca ptr, align 8
  %5 = alloca ptr, align 8
  %6 = alloca i32, align 4
  store ptr %0, ptr %3, align 8, !tbaa !183
  store ptr %1, ptr %4, align 8, !tbaa !183
  call void @llvm.lifetime.start.p0(i64 8, ptr %5) #14
  call void @llvm.lifetime.start.p0(i64 4, ptr %6) #14
  call void @faulthandler_suppress_crash_report()
  store ptr null, ptr %5, align 8, !tbaa !223
  %7 = load ptr, ptr %5, align 8, !tbaa !223
  %8 = load volatile i32, ptr %7, align 4, !tbaa !4
  store volatile i32 %8, ptr %6, align 4, !tbaa !4
  %9 = load volatile i32, ptr %6, align 4, !tbaa !4
  %10 = sext i32 %9 to i64
  %11 = call ptr @PyLong_FromLong(i64 noundef %10)
  call void @llvm.lifetime.end.p0(i64 4, ptr %6) #14
  call void @llvm.lifetime.end.p0(i64 8, ptr %5) #14
  ret ptr %11
}