; Function Attrs: nounwind uwtable
define internal ptr @faulthandler_read_null(ptr readnone captures(none) %0, ptr readnone captures(none) %1) #0 {
  %3 = alloca %struct.rlimit, align 8
  %4 = alloca i32, align 4
  call void @llvm.lifetime.start.p0(i64 4, ptr nonnull %4)
  call void @llvm.lifetime.start.p0(i64 16, ptr nonnull %3) #16
  %5 = call i32 @getrlimit64(i32 noundef 4, ptr noundef nonnull %3) #16
  %6 = icmp eq i32 %5, 0
  br i1 %6, label %7, label %faulthandler_suppress_crash_report.exit

7:                                                ; preds = %2
  store i64 0, ptr %3, align 8, !tbaa !224
  %8 = call i32 @setrlimit64(i32 noundef 4, ptr noundef nonnull %3) #16
  br label %faulthandler_suppress_crash_report.exit

faulthandler_suppress_crash_report.exit:          ; preds = %2, %7
  call void @llvm.lifetime.end.p0(i64 16, ptr nonnull %3) #16
  %9 = load volatile i32, ptr null, align 4294967296, !tbaa !202
  store volatile i32 %9, ptr %4, align 4, !tbaa !202
  %.0..0..0..0. = load volatile i32, ptr %4, align 4, !tbaa !202
  %10 = sext i32 %.0..0..0..0. to i64
  %11 = call ptr @PyLong_FromLong(i64 noundef %10) #16
  call void @llvm.lifetime.end.p0(i64 4, ptr nonnull %4)
  ret ptr %11
}